Certificate:
    Data:
        Version: 1 (0x0)
        Serial Number: 2 (0x2)
    Signature Algorithm: sha256WithRSAEncryption
        Issuer: C=BG, ST=Sofia, L=UKTC, O=ngoDB China, CN=CA-SIGNER
        Validity
            Not Before: Apr 20 11:28:19 2018 GMT
            Not After : Apr 20 11:28:19 2019 GMT
        Subject: C=BG, ST=Sofia, L=UKTC, O=ngoDB China, OU=express, CN=express
        Subject Public Key Info:
            Public Key Algorithm: rsaEncryption
                Public-Key: (2048 bit)
                Modulus:
                    00:c4:aa:0f:1e:e0:2c:7e:a9:8a:35:40:6e:8d:78:
                    c8:aa:0d:58:9d:32:8a:6a:ae:e4:c6:c6:88:7b:c0:
                    00:da:a2:1c:eb:c7:b8:27:0d:12:7f:36:e8:b0:42:
                    2f:76:da:e1:e1:da:9c:b8:39:95:ae:d8:42:09:d3:
                    46:28:49:ca:03:9d:5a:45:29:e4:44:3b:2b:f3:ee:
                    17:d8:6b:c1:5d:a3:0f:01:8e:5f:5d:83:3c:92:8c:
                    37:a1:d8:7b:a4:14:a1:da:77:37:1a:39:eb:42:89:
                    29:97:8c:ea:12:18:41:13:e9:4f:ef:d8:e0:38:3c:
                    d9:90:df:68:62:63:0b:ad:6b:ae:2d:35:7b:ec:04:
                    47:30:e3:51:f4:f0:a6:bd:e1:e7:ad:db:a8:e4:35:
                    51:73:e0:63:67:84:73:ea:bc:a7:b4:53:72:f7:03:
                    e6:51:04:c1:7f:66:e1:5f:58:66:66:8f:fb:e7:07:
                    f0:2a:47:df:ce:28:91:5b:2f:20:67:94:4b:68:5f:
                    5b:6c:b1:41:fe:ca:45:58:a8:dd:42:32:af:27:e2:
                    a0:d2:71:f4:2b:2b:5a:30:09:02:bf:c4:ec:14:b4:
                    72:6b:07:d1:78:cd:5a:06:60:6a:60:7a:95:3d:3a:
                    f2:c1:11:48:88:32:8e:d7:e2:68:ef:4b:79:7b:95:
                    10:47
                Exponent: 65537 (0x10001)
    Signature Algorithm: sha256WithRSAEncryption
         33:85:54:c9:4e:db:42:4e:e6:48:ae:98:dc:55:f4:c0:9e:60:
         f7:13:d8:50:27:4f:48:a9:09:62:ae:df:1c:49:06:fc:b0:f3:
         9f:2c:1e:b4:d5:44:65:5d:5f:91:dc:b6:6d:d7:14:81:6d:ff:
         83:95:23:99:87:82:92:2a:0a:03:4b:db:a9:bc:6b:86:a9:22:
         8d:73:92:51:cd:ae:20:3d:0b:9c:92:5c:4e:91:6f:fd:5d:63:
         71:c4:f3:49:30:bc:37:c8:cc:64:a3:99:53:f5:ea:38:de:b7:
         85:3f:59:0c:6e:0c:09:c0:af:dd:61:f6:cc:73:04:ac:82:cf:
         7d:1e:01:eb:14:64:ec:68:ab:09:f7:6a:ba:2c:ea:ed:96:5e:
         9d:b5:49:db:21:28:93:45:92:12:28:88:9b:f2:ea:71:89:f1:
         91:00:b5:44:2b:e9:49:0c:61:08:9c:13:f3:9e:7d:0c:23:91:
         b8:d1:a3:89:e8:6a:4f:13:39:fe:00:8e:19:55:0a:ad:e6:68:
         89:85:11:ce:84:d2:ad:4f:f7:1d:33:a1:0f:dc:a1:df:90:92:
         5b:9a:25:65:26:c6:2e:69:4c:02:a6:06:26:bf:46:77:3c:8a:
         90:e6:72:c7:bf:64:ba:ac:08:f8:88:ee:81:cd:ac:24:00:30:
         74:b0:0c:91
-----BEGIN CERTIFICATE-----
MIIDMDCCAhgCAQIwDQYJKoZIhvcNAQELBQAwVjELMAkGA1UEBhMCQkcxDjAMBgNV
BAgMBVNvZmlhMQ0wCwYDVQQHDARVS1RDMRQwEgYDVQQKDAtuZ29EQiBDaGluYTES
MBAGA1UEAwwJQ0EtU0lHTkVSMB4XDTE4MDQyMDExMjgxOVoXDTE5MDQyMDExMjgx
OVowZjELMAkGA1UEBhMCQkcxDjAMBgNVBAgMBVNvZmlhMQ0wCwYDVQQHDARVS1RD
MRQwEgYDVQQKDAtuZ29EQiBDaGluYTEQMA4GA1UECwwHZXhwcmVzczEQMA4GA1UE
AwwHZXhwcmVzczCCASIwDQYJKoZIhvcNAQEBBQADggEPADCCAQoCggEBAMSqDx7g
LH6pijVAbo14yKoNWJ0yimqu5MbGiHvAANqiHOvHuCcNEn826LBCL3ba4eHanLg5
la7YQgnTRihJygOdWkUp5EQ7K/PuF9hrwV2jDwGOX12DPJKMN6HYe6QUodp3Nxo5
60KJKZeM6hIYQRPpT+/Y4Dg82ZDfaGJjC61rri01e+wERzDjUfTwpr3h563bqOQ1
UXPgY2eEc+q8p7RTcvcD5lEEwX9m4V9YZmaP++cH8CpH384okVsvIGeUS2hfW2yx
Qf7KRVio3UIyryfioNJx9CsrWjAJAr/E7BS0cmsH0XjNWgZgamB6lT068sERSIgy
jtfiaO9LeXuVEEcCAwEAATANBgkqhkiG9w0BAQsFAAOCAQEAM4VUyU7bQk7mSK6Y
3FX0wJ5g9xPYUCdPSKkJYq7fHEkG/LDznywetNVEZV1fkdy2bdcUgW3/g5UjmYeC
kioKA0vbqbxrhqkijXOSUc2uID0LnJJcTpFv/V1jccTzSTC8N8jMZKOZU/XqON63
hT9ZDG4MCcCv3WH2zHMErILPfR4B6xRk7GirCfdquizq7ZZenbVJ2yEok0WSEiiI
m/LqcYnxkQC1RCvpSQxhCJwT8559DCORuNGjiehqTxM5/gCOGVUKreZoiYURzoTS
rU/3HTOhD9yh35CSW5olZSbGLmlMAqYGJr9GdzyKkOZyx79kuqwI+Ijugc2sJAAw
dLAMkQ==
-----END CERTIFICATE-----
-----BEGIN RSA PRIVATE KEY-----
MIIEpAIBAAKCAQEAxKoPHuAsfqmKNUBujXjIqg1YnTKKaq7kxsaIe8AA2qIc68e4
Jw0SfzbosEIvdtrh4dqcuDmVrthCCdNGKEnKA51aRSnkRDsr8+4X2GvBXaMPAY5f
XYM8kow3odh7pBSh2nc3GjnrQokpl4zqEhhBE+lP79jgODzZkN9oYmMLrWuuLTV7
7ARHMONR9PCmveHnrduo5DVRc+BjZ4Rz6ryntFNy9wPmUQTBf2bhX1hmZo/75wfw
KkffziiRWy8gZ5RLaF9bbLFB/spFWKjdQjKvJ+Kg0nH0KytaMAkCv8TsFLRyawfR
eM1aBmBqYHqVPTrywRFIiDKO1+Jo70t5e5UQRwIDAQABAoIBACPz5vHBD8FUI0Ua
81r/osebywBp9e4M7Rv9vYPKFR3jFyBvkZXqCOCi3CUk5GJ5H2RXv+DZ/ihJtsDv
E9tXqgvBH3iXcPicTKu6cjeJc383yQ2CxqJk1JUB90WqOuhDMVesBbHQttaiFq1z
AHOwZW1LcOarIkqFrUyT2xRpgQAB5hZiUuHJvSFhGRGsFSKTl3t6naHseKrI/J9U
+yP4nC8O9IsxfguvPWD2ey7kNYzWx4CuP72+bwz7M5wgI9Bn2hS+bpmW4i4t449q
xF+EwNUu4twrwY7uxIhkGLbfmDlmI9Pv1s/yJnHtKITJBZ+pYmFlzTJ3p6e/qcN9
VOJjgKECgYEA92C2uXEFOF+1yA02EK4AovAXMJ5DKtQi65euIDXwBW50akYKKcgi
3vpbUlWXPpjEPomdlUQMn6IyyhcoqKJMoHv/398+kiFeApzUe5cJ/sIyIXtII6OF
8IBOM9y3KoI6aOfMNupqw8pVnv8j+cHhkoqtJ9D3VD/TgGCoPegME7ECgYEAy4TX
nrsVpQwPl/22YYcHc0x/foW0C5bLbvWEGJWWViuQtd53KBfdhktxOHjFGVZYq5Pd
QjhtXG599cZpvbGWKQUFDKgPp7OKsW4yGjXvnB8DS1Tin/2FllGt6+d4WtbHndIK
w4WKNu9zCQwM5zw1f9ylKB/ZIS4HDkRXis/NuXcCgYEAx/b1vZEOlzNGzh9fxLvi
59ML69ECmmxAjhBeQMtY6gsPL5jOPlf5WCUoDLYDPCZg++xh5XbMfX2vcIyn4SjQ
qCmT/HOJMLaoN5Rubjj5a2WvAEGXXregXXhZvrJ7nXEHpiU5fmqfQwUbkRrNCecf
YEWZEsZoJ0IwxWVcmi4pFQECgYEAg7ZvjWzqryxFE0rBtBCdg8MoaAvD4BQxiJgg
a4C0EQSU3P8jArGfToCYv8F5XdKCBFjnwymdrUpc/qjwWjIKSnXTNMO3jgMmaXo1
trzdW56+lQxUttJumEA4XQoq3C9QdRUwniVYtAD35A0GdMiEn0F/KZ6i+VQ+gL8+
ILooHDUCgYAEhkEY9pmvR97tiTanTHkq4AM9pO+vu2PYN7nR48IceZoNp5h9fn6I
IypK1/mmSy+7p3YmiEKhxMxZ9xaL44/DGsBHqtkwZPbn4LQrwB8WtzZIUXyXfVpo
M0rUTXByFkXYGYVBoCeZRkc0pglndNVsfzRVzD7Cp/KRHCRYisljZw==
-----END RSA PRIVATE KEY-----
