Certificate:
    Data:
        Version: 1 (0x0)
        Serial Number: 1 (0x1)
    Signature Algorithm: sha256WithRSAEncryption
        Issuer: C=BG, ST=Sofia, L=UKTC, O=ngoDB China, CN=CA-SIGNER
        Validity
            Not Before: Apr 20 11:28:18 2018 GMT
            Not After : Apr 20 11:28:18 2019 GMT
        Subject: C=BG, ST=Sofia, L=UKTC, O=ngoDB China, OU=express, CN=mongodb
        Subject Public Key Info:
            Public Key Algorithm: rsaEncryption
                Public-Key: (2048 bit)
                Modulus:
                    00:c3:fa:86:e3:e0:f2:a8:66:85:f0:e6:76:31:56:
                    ea:9b:46:8b:ab:50:78:23:4f:bc:4f:8d:87:f8:ec:
                    ad:64:44:34:2b:e9:55:24:5a:d4:3e:dd:b0:64:e6:
                    64:15:de:e8:7b:60:f8:45:20:41:74:59:98:43:20:
                    dc:cd:3c:be:46:10:99:5e:03:19:d4:48:84:72:65:
                    be:2c:ca:03:61:f5:96:f3:45:66:29:92:4c:69:aa:
                    93:49:f8:41:49:f1:c1:fd:08:9d:05:f8:dd:b2:ed:
                    78:28:80:8d:10:14:78:15:89:26:da:33:5d:d1:f2:
                    21:dd:29:29:44:22:1b:e4:31:49:3f:f6:96:80:a9:
                    25:2e:55:25:bf:4e:9e:a1:e0:e9:e6:dd:da:1b:8e:
                    84:07:b0:2d:cc:60:68:a0:34:5a:94:07:46:d3:65:
                    fb:78:7c:10:01:37:6b:14:81:4f:db:19:3e:dd:0b:
                    c8:b8:3f:95:84:9d:02:6d:58:ff:2d:17:c9:a4:ce:
                    f5:82:02:dd:6a:df:d4:56:23:61:27:04:db:f3:6e:
                    1e:1f:a9:2c:9b:94:7a:1b:1e:4f:5c:7a:dc:bb:87:
                    a9:0c:37:44:7f:99:52:e3:98:84:b2:bc:f1:f4:82:
                    32:e3:c7:d5:58:21:c5:f3:e3:de:53:7d:52:e7:3d:
                    3a:5d
                Exponent: 65537 (0x10001)
    Signature Algorithm: sha256WithRSAEncryption
         75:a1:ec:fd:0e:a0:b3:b6:b6:67:05:29:35:54:51:c3:d9:bb:
         98:ed:4f:bd:6f:03:4f:90:88:74:d3:4f:4d:f9:ed:81:46:ca:
         c6:5f:9a:92:1c:9d:04:96:52:26:6b:3f:a0:5b:5b:a6:5b:df:
         56:4a:5d:72:6d:1b:01:c9:10:85:db:c1:85:ed:33:8f:0a:81:
         af:72:1c:6e:1c:6f:d1:22:6d:28:82:9a:44:b2:a8:80:32:f5:
         ca:1c:27:84:46:6e:8b:bb:2c:c2:90:c6:00:0e:89:ef:cb:01:
         1b:50:54:1f:17:9f:5c:51:dc:f7:6b:29:95:cd:bb:d6:23:58:
         e9:69:03:92:f5:dd:41:6e:7d:55:47:42:d4:34:25:3f:57:8f:
         76:d9:0d:e2:29:46:ae:80:db:b5:27:6d:15:21:aa:78:9a:20:
         c2:86:9b:af:9f:60:21:22:01:05:bf:77:8e:3c:d5:9a:c6:56:
         b0:f4:c7:9a:3d:19:41:6d:d4:0d:ff:e7:a9:7e:89:b4:7f:51:
         a6:99:d8:d4:0a:d5:a5:7b:6c:c4:ac:2e:6c:b5:05:c1:10:9b:
         e1:60:9d:64:6c:9f:38:53:59:db:2c:f8:c5:ce:0c:bd:88:80:
         0b:8c:02:8f:a2:d2:6a:1a:c6:fd:62:23:90:cf:9e:5f:e8:90:
         e3:97:72:57
-----BEGIN CERTIFICATE-----
MIIDMDCCAhgCAQEwDQYJKoZIhvcNAQELBQAwVjELMAkGA1UEBhMCQkcxDjAMBgNV
BAgMBVNvZmlhMQ0wCwYDVQQHDARVS1RDMRQwEgYDVQQKDAtuZ29EQiBDaGluYTES
MBAGA1UEAwwJQ0EtU0lHTkVSMB4XDTE4MDQyMDExMjgxOFoXDTE5MDQyMDExMjgx
OFowZjELMAkGA1UEBhMCQkcxDjAMBgNVBAgMBVNvZmlhMQ0wCwYDVQQHDARVS1RD
MRQwEgYDVQQKDAtuZ29EQiBDaGluYTEQMA4GA1UECwwHZXhwcmVzczEQMA4GA1UE
AwwHbW9uZ29kYjCCASIwDQYJKoZIhvcNAQEBBQADggEPADCCAQoCggEBAMP6huPg
8qhmhfDmdjFW6ptGi6tQeCNPvE+Nh/jsrWRENCvpVSRa1D7dsGTmZBXe6Htg+EUg
QXRZmEMg3M08vkYQmV4DGdRIhHJlvizKA2H1lvNFZimSTGmqk0n4QUnxwf0InQX4
3bLteCiAjRAUeBWJJtozXdHyId0pKUQiG+QxST/2loCpJS5VJb9OnqHg6ebd2huO
hAewLcxgaKA0WpQHRtNl+3h8EAE3axSBT9sZPt0LyLg/lYSdAm1Y/y0XyaTO9YIC
3Wrf1FYjYScE2/NuHh+pLJuUehseT1x63LuHqQw3RH+ZUuOYhLK88fSCMuPH1Vgh
xfPj3lN9Uuc9Ol0CAwEAATANBgkqhkiG9w0BAQsFAAOCAQEAdaHs/Q6gs7a2ZwUp
NVRRw9m7mO1PvW8DT5CIdNNPTfntgUbKxl+akhydBJZSJms/oFtbplvfVkpdcm0b
AckQhdvBhe0zjwqBr3Icbhxv0SJtKIKaRLKogDL1yhwnhEZui7sswpDGAA6J78sB
G1BUHxefXFHc92splc271iNY6WkDkvXdQW59VUdC1DQlP1ePdtkN4ilGroDbtSdt
FSGqeJogwoabr59gISIBBb93jjzVmsZWsPTHmj0ZQW3UDf/nqX6JtH9RppnY1ArV
pXtsxKwubLUFwRCb4WCdZGyfOFNZ2yz4xc4MvYiAC4wCj6LSahrG/WIjkM+eX+iQ
45dyVw==
-----END CERTIFICATE-----
-----BEGIN RSA PRIVATE KEY-----
MIIEowIBAAKCAQEAw/qG4+DyqGaF8OZ2MVbqm0aLq1B4I0+8T42H+OytZEQ0K+lV
JFrUPt2wZOZkFd7oe2D4RSBBdFmYQyDczTy+RhCZXgMZ1EiEcmW+LMoDYfWW80Vm
KZJMaaqTSfhBSfHB/QidBfjdsu14KICNEBR4FYkm2jNd0fIh3SkpRCIb5DFJP/aW
gKklLlUlv06eoeDp5t3aG46EB7AtzGBooDRalAdG02X7eHwQATdrFIFP2xk+3QvI
uD+VhJ0CbVj/LRfJpM71ggLdat/UViNhJwTb824eH6ksm5R6Gx5PXHrcu4epDDdE
f5lS45iEsrzx9IIy48fVWCHF8+PeU31S5z06XQIDAQABAoIBAE0sBxgPCZ70mEPP
jLVLI6E3e2Jfkp9dE6tD8Uo9cN3t2Zl9DXD+b1u+Emr5KmpOV7/V5I3b8MpvSX0N
oMUU6VxPxwT1NaOZVsZxeBzNA938Ro/PQTaXjI2DhPJ41sTWdWw9iw/B+xMtXcad
MG8nkE3yryD3XzeAIIOlZMGWqOMHL6tzXqtHGYi/8CeZaQkGQF4+0FsEFaTw4Cnv
M2k+PnK7kOYKLow6sLSIc8ljLgI/x9OyS7wbc29ArFbtHJiGtYPthampD5Yjv7cf
DZKOtjE9hWLBoCev1j7RwbYvdzOlynY7EIBZg6pE5cTQqgCNLk512OKALMgFzueC
KMCzfWECgYEA/ZwnaunMm0GDQT32l6NhuFdpjS58IMY9r2twloKz44u2P8MOUqUZ
ibAW8tq5Mg07uG7ZkThNCfDm14SpTZOxGJOd+IZhe9A+EyNCvUD49DrPcIAbROGB
6+ALUKMDBt1kJXRblh+wNVPHImpl69FqRCXyCO4fTbMRFOiBTGtY7UkCgYEAxdNV
ptOLCiZXDoo8fl1Twsf5tzfh7EmQ/viEea0I4AOLgicJwOgqGgAhVFjwqiKaLc1l
KRoonNSYio88LrslLlPzf99r13qY95mjjqT1vzB7xjEbdiHaeEMHpDoRBdvJrekq
WQVLDawkq4sGwT30V3+B8W5p11AGSoLKlR86iHUCgYBPe+1uuLADyNiWThFHHVG3
MM5IDVWh//+9RvMWeQhgPJ12BnAqvsvuN1455ws8AKHDABr4RKkAgJwY198oDS3o
Afv0tElBQNbzsI1uOzrLcNMq8zuYrwTFJIbnUu/T6vdENd+ugWf8jrFOvAINkqi3
ixz8Z4UwGPs1jllX1h0c4QKBgQC6XsU8q+M7pq8xpY4kRmxY/ukFcYJIh24wp5S2
xQutb+mIrpqDwLWZVTIRMtFYl8zFBdIeDOTiC2/Cafr605jNso2elLAWiwt9iKMM
CeDzRAv3xd/nRTF7Rzr1vza2XD/+tcINp+zzbpAFhK7Sczm1DQ0wlSLllCC5JcsQ
/iC42QKBgHZedrXyBstSV/b+ISTwVZ6RPqkTt2LSUn3x5NwJKN3JfqDky/tJ32Kl
XJZ2wHPvFz2bRLqniqLpLvo9y9gdPJegojLBMOZlBOC6Px1lSXOPjd2OJ8cYBFKb
I3QDmmgiFmMlC18CM6XKjDCpJ6z+szHdv+3JgAYGhwIDTa8+rjl1
-----END RSA PRIVATE KEY-----
