-----BEGIN CERTIFICATE-----
MIIDeTCCAmGgAwIBAgIJANDQJIbO10OYMA0GCSqGSIb3DQEBCwUAMFMxCzAJBgNV
BAYTAkJHMQ4wDAYDVQQIDAVTb2ZpYTENMAsGA1UEBwwEVUtUQzEUMBIGA1UECgwL
bmdvREIgQ2hpbmExDzANBgNVBAMMBlJPT1RDQTAeFw0xODA0MjAxMTI4MThaFw0y
ODA0MTcxMTI4MThaMFMxCzAJBgNVBAYTAkJHMQ4wDAYDVQQIDAVTb2ZpYTENMAsG
A1UEBwwEVUtUQzEUMBIGA1UECgwLbmdvREIgQ2hpbmExDzANBgNVBAMMBlJPT1RD
QTCCASIwDQYJKoZIhvcNAQEBBQADggEPADCCAQoCggEBAMzYZxOP2oqQBb/ZOOs3
ebHr9t9n4DancsWxiuTQ/V2xlRD+EbA6hL32xv2MCHh9Lm22h7lSqyUqmPhYWy32
9VbId4l2h9o343TFiavgcUNmjDSZEx2h2XbNkkIUmNF307KhP0H1euPt2osTZfIN
228K4h2lmCbIlcAcU3Vp9DluxOBrKmi8HzHJYvwtDBq66iJCkQvwzonO5TRh+QUf
mXB4YmEd+Jth60drTSnnu08XsSMQ5H/F9Fwqxh16NGauWrnQtliqh3gKyo4b5K3J
6l3iwZlcp37tRznksoQRrbRceBxmMGw50TloXGdWrAXklLhcoL3QCnkihhXJjB35
W9UCAwEAAaNQME4wHQYDVR0OBBYEFAuB1UovVtp6DrN3dgFjY65ArpkyMB8GA1Ud
IwQYMBaAFAuB1UovVtp6DrN3dgFjY65ArpkyMAwGA1UdEwQFMAMBAf8wDQYJKoZI
hvcNAQELBQADggEBAApNmuuIQVeJNPXG8D0N7dId4IWnLle8u+HwzRbXh+SbbdYE
3mR0VxfJyBtNXTEiFPbFI2usjtfkCScvNL7G7m3di+BWmlbU9rd92Iu86KgO84Vj
icPMK0ZCHCLhY1ff1iTfUMZ8KjWB09iY71MobLZIN2ROvKvYuHG7OWw7lSSTXQ8Y
+ffhROt9PNTfmot/bGk78RDdSDOusiz/8S9LrN7JaPjT9Zir0D07iLtX1miVpd9r
VIFKRuCmYnmUKz+Q7g9ngApv+hwCnfwOiDWK8XzJva157BuPhxPV4TDRlNtYR/bN
vruIFgxBRO4Ge/E1zdhEJQdnXnPwMRFk/p5BZeg=
-----END CERTIFICATE-----
Certificate:
    Data:
        Version: 3 (0x2)
        Serial Number: 1 (0x1)
    Signature Algorithm: sha256WithRSAEncryption
        Issuer: C=BG, ST=Sofia, L=UKTC, O=ngoDB China, CN=ROOTCA
        Validity
            Not Before: Apr 20 11:28:18 2018 GMT
            Not After : Apr 20 11:28:18 2019 GMT
        Subject: C=BG, ST=Sofia, L=UKTC, O=ngoDB China, CN=CA-SIGNER
        Subject Public Key Info:
            Public Key Algorithm: rsaEncryption
                Public-Key: (2048 bit)
                Modulus:
                    00:b7:56:7d:28:8f:69:4c:2e:04:e0:07:1a:57:8d:
                    e0:dc:f5:69:32:bf:e6:7c:51:a6:d0:ad:8a:5a:88:
                    fa:80:7c:42:0b:4c:db:39:e2:65:1e:7d:ad:77:63:
                    88:af:e3:75:86:60:3c:1e:45:85:28:9f:11:c9:8e:
                    3e:7b:46:24:d5:b3:e3:60:40:b1:c8:39:ec:56:e2:
                    85:a1:32:22:8f:49:6b:59:09:8b:0f:70:68:4d:64:
                    81:e5:fe:f6:40:56:9b:c9:19:9b:9a:13:26:77:82:
                    be:4f:d9:ac:b4:82:26:86:5e:be:43:0a:53:6b:e6:
                    c4:cb:4f:58:f9:8b:99:28:ef:69:60:3b:bd:d2:63:
                    e4:10:83:94:73:fa:c7:47:8c:45:b0:62:69:29:4e:
                    e6:fd:4f:f3:be:83:ee:6a:12:8d:2b:61:21:06:18:
                    f8:cc:62:34:70:c0:3c:e5:91:b4:17:80:00:d9:04:
                    61:e3:57:6a:f7:03:e8:09:19:af:02:30:04:7d:a3:
                    98:0f:f1:03:25:73:6f:31:03:df:50:3e:8d:8d:04:
                    f7:93:3c:a9:7a:6a:ea:9b:ae:aa:6c:0c:24:cf:34:
                    14:b7:8c:9f:66:7f:30:11:64:c8:a6:47:a7:35:52:
                    50:92:98:bb:21:38:4f:84:43:3e:5e:54:52:14:57:
                    81:43
                Exponent: 65537 (0x10001)
        X509v3 extensions:
            X509v3 Subject Key Identifier: 
                6E:85:3D:D9:CA:05:0C:2C:74:B3:1F:BC:8A:00:38:DE:E7:26:60:2D
            X509v3 Authority Key Identifier: 
                keyid:0B:81:D5:4A:2F:56:DA:7A:0E:B3:77:76:01:63:63:AE:40:AE:99:32
                DirName:/C=BG/ST=Sofia/L=UKTC/O=ngoDB China/CN=ROOTCA
                serial:D0:D0:24:86:CE:D7:43:98

            X509v3 Basic Constraints: 
                CA:TRUE
    Signature Algorithm: sha256WithRSAEncryption
         ae:fa:d8:6f:5b:1c:08:b5:e7:88:8f:ac:ea:7f:ea:5a:77:41:
         2a:a0:54:61:39:c5:5e:41:39:14:89:bc:a3:fe:2a:cf:ca:58:
         09:94:40:a1:75:dd:b2:c0:fa:e0:09:cf:6c:8d:c3:d5:86:12:
         c1:0d:ae:ba:2a:06:20:c5:2d:41:01:7e:93:52:31:9f:a8:be:
         ea:80:7e:4c:c5:e1:72:9c:bc:96:20:b7:25:f6:fc:07:b5:a3:
         4b:7f:8a:09:1a:20:73:de:eb:50:2b:75:7c:51:c1:e4:87:75:
         93:6a:b9:5f:42:49:cc:86:1a:01:21:e6:79:36:82:97:e2:65:
         d0:41:43:36:29:47:2e:0e:ad:60:84:39:7b:52:6e:0a:b1:3d:
         e7:c2:78:98:e1:c7:1a:7d:12:15:b1:b0:bc:18:3f:8f:f2:cd:
         83:c3:ce:16:91:8c:35:bf:8b:a4:9b:e7:4a:04:42:68:85:73:
         3c:42:37:60:39:31:55:2a:4b:4f:d1:14:78:47:59:e5:69:e5:
         f6:89:5b:9c:7b:50:49:dc:10:dc:dd:f2:20:12:0a:e1:06:98:
         5d:80:29:61:07:f0:31:fa:d1:38:8e:8f:1f:e2:7b:9c:ac:a6:
         38:52:40:ea:4c:dc:5d:51:6c:9a:5a:87:d0:11:db:7b:a9:24:
         12:f1:dd:94
-----BEGIN CERTIFICATE-----
MIID2zCCAsOgAwIBAgIBATANBgkqhkiG9w0BAQsFADBTMQswCQYDVQQGEwJCRzEO
MAwGA1UECAwFU29maWExDTALBgNVBAcMBFVLVEMxFDASBgNVBAoMC25nb0RCIENo
aW5hMQ8wDQYDVQQDDAZST09UQ0EwHhcNMTgwNDIwMTEyODE4WhcNMTkwNDIwMTEy
ODE4WjBWMQswCQYDVQQGEwJCRzEOMAwGA1UECAwFU29maWExDTALBgNVBAcMBFVL
VEMxFDASBgNVBAoMC25nb0RCIENoaW5hMRIwEAYDVQQDDAlDQS1TSUdORVIwggEi
MA0GCSqGSIb3DQEBAQUAA4IBDwAwggEKAoIBAQC3Vn0oj2lMLgTgBxpXjeDc9Wky
v+Z8UabQrYpaiPqAfEILTNs54mUefa13Y4iv43WGYDweRYUonxHJjj57RiTVs+Ng
QLHIOexW4oWhMiKPSWtZCYsPcGhNZIHl/vZAVpvJGZuaEyZ3gr5P2ay0giaGXr5D
ClNr5sTLT1j5i5ko72lgO73SY+QQg5Rz+sdHjEWwYmkpTub9T/O+g+5qEo0rYSEG
GPjMYjRwwDzlkbQXgADZBGHjV2r3A+gJGa8CMAR9o5gP8QMlc28xA99QPo2NBPeT
PKl6auqbrqpsDCTPNBS3jJ9mfzARZMimR6c1UlCSmLshOE+EQz5eVFIUV4FDAgMB
AAGjgbYwgbMwHQYDVR0OBBYEFG6FPdnKBQwsdLMfvIoAON7nJmAtMIGDBgNVHSME
fDB6gBQLgdVKL1baeg6zd3YBY2OuQK6ZMqFXpFUwUzELMAkGA1UEBhMCQkcxDjAM
BgNVBAgMBVNvZmlhMQ0wCwYDVQQHDARVS1RDMRQwEgYDVQQKDAtuZ29EQiBDaGlu
YTEPMA0GA1UEAwwGUk9PVENBggkA0NAkhs7XQ5gwDAYDVR0TBAUwAwEB/zANBgkq
hkiG9w0BAQsFAAOCAQEArvrYb1scCLXniI+s6n/qWndBKqBUYTnFXkE5FIm8o/4q
z8pYCZRAoXXdssD64AnPbI3D1YYSwQ2uuioGIMUtQQF+k1Ixn6i+6oB+TMXhcpy8
liC3Jfb8B7WjS3+KCRogc97rUCt1fFHB5Id1k2q5X0JJzIYaASHmeTaCl+Jl0EFD
NilHLg6tYIQ5e1JuCrE958J4mOHHGn0SFbGwvBg/j/LNg8POFpGMNb+LpJvnSgRC
aIVzPEI3YDkxVSpLT9EUeEdZ5Wnl9olbnHtQSdwQ3N3yIBIK4QaYXYApYQfwMfrR
OI6PH+J7nKymOFJA6kzcXVFsmlqH0BHbe6kkEvHdlA==
-----END CERTIFICATE-----
